; ModuleID = '54/1128.c'
source_filename = "54/1128.c"
target datalayout = "e-m:e-p270:32:32-p271:32:32-p272:64:64-i64:64-f80:128-n8:16:32:64-S128"
target triple = "x86_64-pc-linux-gnu"

@.str = private unnamed_addr constant [6 x i8] c"%d %d\00", align 1
@.str.1 = private unnamed_addr constant [4 x i8] c"%d\0A\00", align 1

; Function Attrs: noinline nounwind uwtable
define dso_local i32 @key(i32 %0, i32 %1, i32 %2, i32 %3) #0 {
  %5 = alloca i32, align 4
  %6 = alloca i32, align 4
  %7 = alloca i32, align 4
  %8 = alloca i32, align 4
  %9 = alloca i32, align 4
  store i32 %0, i32* %6, align 4
  store i32 %1, i32* %7, align 4
  store i32 %2, i32* %8, align 4
  store i32 %3, i32* %9, align 4
  %10 = load i32, i32* %8, align 4
  %11 = icmp eq i32 %10, 1
  br i1 %11, label %12, label %27

12:                                               ; preds = %4
  %13 = load i32, i32* %6, align 4
  %14 = load i32, i32* %9, align 4
  %15 = icmp sgt i32 %13, %14
  br i1 %15, label %16, label %23

16:                                               ; preds = %12
  %17 = load i32, i32* %6, align 4
  %18 = load i32, i32* %9, align 4
  %19 = sub nsw i32 %17, %18
  %20 = load i32, i32* %7, align 4
  %21 = srem i32 %19, %20
  %22 = icmp eq i32 %21, 0
  br label %23

23:                                               ; preds = %16, %12
  %24 = phi i1 [ false, %12 ], [ %22, %16 ]
  %25 = zext i1 %24 to i64
  %26 = select i1 %24, i32 1, i32 0
  store i32 %26, i32* %5, align 4
  br label %55

27:                                               ; preds = %4
  %28 = load i32, i32* %6, align 4
  %29 = load i32, i32* %9, align 4
  %30 = icmp sgt i32 %28, %29
  br i1 %30, label %31, label %52

31:                                               ; preds = %27
  %32 = load i32, i32* %6, align 4
  %33 = load i32, i32* %9, align 4
  %34 = sub nsw i32 %32, %33
  %35 = load i32, i32* %7, align 4
  %36 = srem i32 %34, %35
  %37 = icmp eq i32 %36, 0
  br i1 %37, label %38, label %52

38:                                               ; preds = %31
  %39 = load i32, i32* %6, align 4
  %40 = load i32, i32* %9, align 4
  %41 = sub nsw i32 %39, %40
  %42 = load i32, i32* %7, align 4
  %43 = sub nsw i32 %42, 1
  %44 = mul nsw i32 %41, %43
  %45 = load i32, i32* %7, align 4
  %46 = sdiv i32 %44, %45
  %47 = load i32, i32* %7, align 4
  %48 = load i32, i32* %8, align 4
  %49 = sub nsw i32 %48, 1
  %50 = load i32, i32* %9, align 4
  %51 = call i32 @key(i32 %46, i32 %47, i32 %49, i32 %50)
  br label %53

52:                                               ; preds = %31, %27
  br label %53

53:                                               ; preds = %52, %38
  %54 = phi i32 [ %51, %38 ], [ 0, %52 ]
  store i32 %54, i32* %5, align 4
  br label %55

55:                                               ; preds = %53, %23
  %56 = load i32, i32* %5, align 4
  ret i32 %56
}

; Function Attrs: noinline nounwind uwtable
define dso_local void @main() #0 {
  %1 = alloca i32, align 4
  %2 = alloca i32, align 4
  %3 = alloca i32, align 4
  %4 = call i32 (i8*, ...) @__isoc99_scanf(i8* getelementptr inbounds ([6 x i8], [6 x i8]* @.str, i64 0, i64 0), i32* %2, i32* %3)
  store i32 1, i32* %1, align 4
  br label %5

5:                                                ; preds = %16, %0
  %6 = load i32, i32* %1, align 4
  %7 = load i32, i32* %2, align 4
  %8 = load i32, i32* %2, align 4
  %9 = load i32, i32* %3, align 4
  %10 = call i32 @key(i32 %6, i32 %7, i32 %8, i32 %9)
  %11 = icmp eq i32 %10, 1
  br i1 %11, label %12, label %15

12:                                               ; preds = %5
  %13 = load i32, i32* %1, align 4
  %14 = call i32 (i8*, ...) @printf(i8* getelementptr inbounds ([4 x i8], [4 x i8]* @.str.1, i64 0, i64 0), i32 %13)
  br label %19

15:                                               ; preds = %5
  br label %16

16:                                               ; preds = %15
  %17 = load i32, i32* %1, align 4
  %18 = add nsw i32 %17, 1
  store i32 %18, i32* %1, align 4
  br label %5

19:                                               ; preds = %12
  ret void
}

declare dso_local i32 @__isoc99_scanf(i8*, ...) #1

declare dso_local i32 @printf(i8*, ...) #1


!llvm.module.flags = !{!0}
!llvm.ident = !{!1}

!0 = !{i32 1, !"wchar_size", i32 4}
!1 = !{!"clang version 10.0.0-4ubuntu1 "}
